target datalayout = "e-m:e-p270:32:32-p271:32:32-p272:64:64-i64:64-i128:128-f80:128-n8:16:32:64-S128"
target triple = "x86_64-pc-linux-gnu"

%struct.rd_struct_s = type { i32, i16, i8, i8, ptr }
%struct.inode = type { ptr, ptr, ptr, i16, i16, %union.inode_ops_u, i16, ptr, [1 x i8] }
%union.inode_ops_u = type { ptr }

; Function Attrs: nounwind uwtable
define internal i32 @rd_open(ptr noundef %0) #0 {
  %2 = alloca ptr, align 8
  %3 = alloca ptr, align 8
  store ptr %0, ptr %2, align 8
  %4 = load ptr, ptr %2, align 8
  %5 = getelementptr inbounds %struct.inode, ptr %4, i32 0, i32 7
  %6 = load ptr, ptr %5, align 8
  store ptr %6, ptr %3, align 8
  %7 = load ptr, ptr %3, align 8
  %8 = getelementptr inbounds %struct.rd_struct_s, ptr %7, i32 0, i32 2
  %9 = load i8, ptr %8, align 2
  %10 = add i8 %9, 1
  store i8 %10, ptr %8, align 2
  br label %11

11:                                               ; preds = %1
  br label %12

12:                                               ; preds = %11
  ret i32 0
}